target datalayout = "e-m:e-p270:32:32-p271:32:32-p272:64:64-i64:64-i128:128-f80:128-n8:16:32:64-S128"
target triple = "x86_64-pc-linux-gnu"

@.str.3 = private unnamed_addr constant [16 x i8] c"jsonpath_gram.y\00", align 1
@.str.10 = private unnamed_addr constant [66 x i8] c"XQuery \22x\22 flag (expanded regular expressions) is not implemented\00", align 1
@__func__.jspConvertRegexFlags = private unnamed_addr constant [21 x i8] c"jspConvertRegexFlags\00", align 1

; Function Attrs: nounwind uwtable
define dso_local zeroext i1 @jspConvertRegexFlags(i32 noundef %0, ptr noundef %1, ptr noundef %2) #0 {
  %4 = alloca i1, align 1
  %5 = alloca i32, align 4
  %6 = alloca ptr, align 8
  %7 = alloca ptr, align 8
  %8 = alloca i32, align 4
  %9 = alloca ptr, align 8
  %10 = alloca i32, align 4
  store i32 %0, ptr %5, align 4
  store ptr %1, ptr %6, align 8
  store ptr %2, ptr %7, align 8
  call void @llvm.lifetime.start.p0(i64 4, ptr %8) #7
  store i32 3, ptr %8, align 4
  %11 = load i32, ptr %5, align 4
  %12 = and i32 %11, 1
  %13 = icmp ne i32 %12, 0
  br i1 %13, label %14, label %17

14:                                               ; preds = %3
  %15 = load i32, ptr %8, align 4
  %16 = or i32 %15, 8
  store i32 %16, ptr %8, align 4
  br label %17

17:                                               ; preds = %14, %3
  %18 = load i32, ptr %5, align 4
  %19 = and i32 %18, 16
  %20 = icmp ne i32 %19, 0
  br i1 %20, label %21, label %26

21:                                               ; preds = %17
  %22 = load i32, ptr %8, align 4
  %23 = and i32 %22, -4
  store i32 %23, ptr %8, align 4
  %24 = load i32, ptr %8, align 4
  %25 = or i32 %24, 4
  store i32 %25, ptr %8, align 4
  br label %60

26:                                               ; preds = %17
  %27 = load i32, ptr %5, align 4
  %28 = and i32 %27, 2
  %29 = icmp ne i32 %28, 0
  br i1 %29, label %33, label %30

30:                                               ; preds = %26
  %31 = load i32, ptr %8, align 4
  %32 = or i32 %31, 64
  store i32 %32, ptr %8, align 4
  br label %33

33:                                               ; preds = %30, %26
  %34 = load i32, ptr %5, align 4
  %35 = and i32 %34, 4
  %36 = icmp ne i32 %35, 0
  br i1 %36, label %37, label %40

37:                                               ; preds = %33
  %38 = load i32, ptr %8, align 4
  %39 = or i32 %38, 128
  store i32 %39, ptr %8, align 4
  br label %40

40:                                               ; preds = %37, %33
  %41 = load i32, ptr %5, align 4
  %42 = and i32 %41, 8
  %43 = icmp ne i32 %42, 0
  br i1 %43, label %44, label %59

44:                                               ; preds = %40
  br label %45

45:                                               ; preds = %44
  br label %46

46:                                               ; preds = %45
  call void @llvm.lifetime.start.p0(i64 8, ptr %9) #7
  %47 = load ptr, ptr %7, align 8
  store ptr %47, ptr %9, align 8
  %48 = load ptr, ptr %9, align 8
  %49 = call zeroext i1 @errsave_start(ptr noundef %48, ptr noundef null)
  br i1 %49, label %50, label %54

50:                                               ; preds = %46
  %51 = call i32 @errcode(i32 noundef 1088)
  %52 = call i32 (ptr, ...) @errmsg(ptr noundef @.str.10)
  %53 = load ptr, ptr %9, align 8
  call void @errsave_finish(ptr noundef %53, ptr noundef @.str.3, i32 noundef 679, ptr noundef @__func__.jspConvertRegexFlags)
  br label %54

54:                                               ; preds = %50, %46
  call void @llvm.lifetime.end.p0(i64 8, ptr %9) #7
  br label %55

55:                                               ; preds = %54
  br label %56

56:                                               ; preds = %55
  store i1 false, ptr %4, align 1
  store i32 1, ptr %10, align 4
  br label %63

57:                                               ; No predecessors!
  br label %58

58:                                               ; preds = %57
  br label %59

59:                                               ; preds = %58, %40
  br label %60

60:                                               ; preds = %59, %21
  %61 = load i32, ptr %8, align 4
  %62 = load ptr, ptr %6, align 8
  store i32 %61, ptr %62, align 4
  store i1 true, ptr %4, align 1
  store i32 1, ptr %10, align 4
  br label %63

63:                                               ; preds = %60, %56
  call void @llvm.lifetime.end.p0(i64 4, ptr %8) #7
  %64 = load i1, ptr %4, align 1
  ret i1 %64
}