; Function Attrs: nounwind uwtable
define dso_local noundef zeroext i1 @jspConvertRegexFlags(i32 noundef %0, ptr noundef writeonly captures(none) %1, ptr noundef %2) local_unnamed_addr #0 {
  %4 = and i32 %0, 1
  %.not = icmp eq i32 %4, 0
  %spec.select = select i1 %.not, i32 3, i32 11
  %5 = and i32 %0, 16
  %.not16 = icmp eq i32 %5, 0
  br i1 %.not16, label %9, label %6

6:                                                ; preds = %3
  %7 = and i32 %spec.select, 8
  %8 = or disjoint i32 %7, 4
  br label %19

9:                                                ; preds = %3
  %10 = shl i32 %0, 5
  %11 = and i32 %10, 192
  %12 = or disjoint i32 %11, %spec.select
  %.3 = xor i32 %12, 64
  %13 = and i32 %0, 8
  %.not19 = icmp eq i32 %13, 0
  br i1 %.not19, label %19, label %14

14:                                               ; preds = %9
  %15 = tail call zeroext i1 @errsave_start(ptr noundef %2, ptr noundef null) #6
  br i1 %15, label %16, label %20

16:                                               ; preds = %14
  %17 = tail call i32 @errcode(i32 noundef 1088) #6
  %18 = tail call i32 (ptr, ...) @errmsg(ptr noundef nonnull @.str.10) #6
  tail call void @errsave_finish(ptr noundef %2, ptr noundef nonnull @.str.3, i32 noundef 679, ptr noundef nonnull @__func__.jspConvertRegexFlags) #6
  br label %20

19:                                               ; preds = %9, %6
  %.1 = phi i32 [ %8, %6 ], [ %.3, %9 ]
  store i32 %.1, ptr %1, align 4
  br label %20

20:                                               ; preds = %14, %16, %19
  %.0 = phi i1 [ true, %19 ], [ false, %16 ], [ false, %14 ]
  ret i1 %.0
}